target datalayout = "e-m:e-p270:32:32-p271:32:32-p272:64:64-i64:64-i128:128-f80:128-n8:16:32:64-S128"
target triple = "x86_64-pc-linux-gnu"

%struct.AVFilterContext = type { ptr, ptr, ptr, ptr, ptr, i32, ptr, ptr, i32, ptr, ptr, i32, i32, ptr, ptr, ptr, ptr, i32, ptr, i32, i32 }
%struct.CellAutoContext = type { ptr, i32, i32, ptr, ptr, ptr, i64, ptr, i32, i32, i8, i64, %struct.AVRational, double, i64, i32, i32, i32, i64, %struct.AVLFG, ptr }
%struct.AVRational = type { i32, i32 }
%struct.AVLFG = type { [64 x i32], i32 }

@.str.36 = private unnamed_addr constant [6 x i8] c"w:%d\0A\00", align 1
@.str.37 = private unnamed_addr constant [80 x i8] c"The specified width is %d which cannot contain the provided string width of %d\0A\00", align 1
@.str.38 = private unnamed_addr constant [7 x i8] c"%d %c\0A\00", align 1

; Function Attrs: inlinehint nounwind willreturn memory(none) uwtable
define internal i32 @av_isgraph(i32 noundef %0) #8 {
  %2 = alloca i32, align 4
  store i32 %0, ptr %2, align 4, !tbaa !32
  %3 = load i32, ptr %2, align 4, !tbaa !32
  %4 = icmp sgt i32 %3, 32
  br i1 %4, label %5, label %8

5:                                                ; preds = %1
  %6 = load i32, ptr %2, align 4, !tbaa !32
  %7 = icmp slt i32 %6, 127
  br label %8

8:                                                ; preds = %5, %1
  %9 = phi i1 [ false, %1 ], [ %7, %5 ]
  %10 = zext i1 %9 to i32
  ret i32 %10
}

; Function Attrs: nounwind uwtable
define internal i32 @init_pattern_from_string(ptr noundef %0) #1 {
  %2 = alloca i32, align 4
  %3 = alloca ptr, align 8
  %4 = alloca ptr, align 8
  %5 = alloca ptr, align 8
  %6 = alloca i32, align 4
  %7 = alloca i32, align 4
  %8 = alloca i32, align 4
  store ptr %0, ptr %3, align 8, !tbaa !4
  call void @llvm.lifetime.start.p0(i64 8, ptr %4) #9
  %9 = load ptr, ptr %3, align 8, !tbaa !4
  %10 = getelementptr inbounds nuw %struct.AVFilterContext, ptr %9, i32 0, i32 9
  %11 = load ptr, ptr %10, align 8, !tbaa !9
  store ptr %11, ptr %4, align 8, !tbaa !22
  call void @llvm.lifetime.start.p0(i64 8, ptr %5) #9
  call void @llvm.lifetime.start.p0(i64 4, ptr %6) #9
  call void @llvm.lifetime.start.p0(i64 4, ptr %7) #9
  store i32 0, ptr %7, align 4, !tbaa !32
  %12 = load ptr, ptr %4, align 8, !tbaa !22
  %13 = getelementptr inbounds nuw %struct.CellAutoContext, ptr %12, i32 0, i32 20
  %14 = load ptr, ptr %13, align 8, !tbaa !31
  %15 = call i64 @strlen(ptr noundef %14) #10
  %16 = trunc i64 %15 to i32
  store i32 %16, ptr %7, align 4, !tbaa !32
  %17 = load ptr, ptr %3, align 8, !tbaa !4
  %18 = load i32, ptr %7, align 4, !tbaa !32
  call void (ptr, i32, ptr, ...) @av_log(ptr noundef %17, i32 noundef 48, ptr noundef @.str.36, i32 noundef %18)
  %19 = load ptr, ptr %4, align 8, !tbaa !22
  %20 = getelementptr inbounds nuw %struct.CellAutoContext, ptr %19, i32 0, i32 1
  %21 = load i32, ptr %20, align 8, !tbaa !24
  %22 = icmp ne i32 %21, 0
  br i1 %22, label %23, label %36

23:                                               ; preds = %1
  %24 = load i32, ptr %7, align 4, !tbaa !32
  %25 = load ptr, ptr %4, align 8, !tbaa !22
  %26 = getelementptr inbounds nuw %struct.CellAutoContext, ptr %25, i32 0, i32 1
  %27 = load i32, ptr %26, align 8, !tbaa !24
  %28 = icmp sgt i32 %24, %27
  br i1 %28, label %29, label %35

29:                                               ; preds = %23
  %30 = load ptr, ptr %3, align 8, !tbaa !4
  %31 = load ptr, ptr %4, align 8, !tbaa !22
  %32 = getelementptr inbounds nuw %struct.CellAutoContext, ptr %31, i32 0, i32 1
  %33 = load i32, ptr %32, align 8, !tbaa !24
  %34 = load i32, ptr %7, align 4, !tbaa !32
  call void (ptr, i32, ptr, ...) @av_log(ptr noundef %30, i32 noundef 16, ptr noundef @.str.37, i32 noundef %33, i32 noundef %34)
  store i32 -22, ptr %2, align 4
  store i32 1, ptr %8, align 4
  br label %121

35:                                               ; preds = %23
  br label %48

36:                                               ; preds = %1
  %37 = load i32, ptr %7, align 4, !tbaa !32
  %38 = load ptr, ptr %4, align 8, !tbaa !22
  %39 = getelementptr inbounds nuw %struct.CellAutoContext, ptr %38, i32 0, i32 1
  store i32 %37, ptr %39, align 8, !tbaa !24
  %40 = load ptr, ptr %4, align 8, !tbaa !22
  %41 = getelementptr inbounds nuw %struct.CellAutoContext, ptr %40, i32 0, i32 1
  %42 = load i32, ptr %41, align 8, !tbaa !24
  %43 = sitofp i32 %42 to double
  %44 = fmul nsz double %43, 0x3FF9E3779B97F4A8
  %45 = fptosi double %44 to i32
  %46 = load ptr, ptr %4, align 8, !tbaa !22
  %47 = getelementptr inbounds nuw %struct.CellAutoContext, ptr %46, i32 0, i32 2
  store i32 %45, ptr %47, align 4, !tbaa !33
  br label %48

48:                                               ; preds = %36, %35
  %49 = load ptr, ptr %4, align 8, !tbaa !22
  %50 = getelementptr inbounds nuw %struct.CellAutoContext, ptr %49, i32 0, i32 1
  %51 = load i32, ptr %50, align 8, !tbaa !24
  %52 = sext i32 %51 to i64
  %53 = load ptr, ptr %4, align 8, !tbaa !22
  %54 = getelementptr inbounds nuw %struct.CellAutoContext, ptr %53, i32 0, i32 2
  %55 = load i32, ptr %54, align 4, !tbaa !33
  %56 = sext i32 %55 to i64
  %57 = mul i64 %56, 1
  %58 = call noalias ptr @av_calloc(i64 noundef %52, i64 noundef %57)
  %59 = load ptr, ptr %4, align 8, !tbaa !22
  %60 = getelementptr inbounds nuw %struct.CellAutoContext, ptr %59, i32 0, i32 7
  store ptr %58, ptr %60, align 8, !tbaa !34
  %61 = load ptr, ptr %4, align 8, !tbaa !22
  %62 = getelementptr inbounds nuw %struct.CellAutoContext, ptr %61, i32 0, i32 7
  %63 = load ptr, ptr %62, align 8, !tbaa !34
  %64 = icmp ne ptr %63, null
  br i1 %64, label %66, label %65

65:                                               ; preds = %48
  store i32 -12, ptr %2, align 4
  store i32 1, ptr %8, align 4
  br label %121

66:                                               ; preds = %48
  %67 = load ptr, ptr %4, align 8, !tbaa !22
  %68 = getelementptr inbounds nuw %struct.CellAutoContext, ptr %67, i32 0, i32 20
  %69 = load ptr, ptr %68, align 8, !tbaa !31
  store ptr %69, ptr %5, align 8, !tbaa !77
  %70 = load ptr, ptr %4, align 8, !tbaa !22
  %71 = getelementptr inbounds nuw %struct.CellAutoContext, ptr %70, i32 0, i32 1
  %72 = load i32, ptr %71, align 8, !tbaa !24
  %73 = load i32, ptr %7, align 4, !tbaa !32
  %74 = sub nsw i32 %72, %73
  %75 = sdiv i32 %74, 2
  store i32 %75, ptr %6, align 4, !tbaa !32
  br label %76

76:                                               ; preds = %117, %66
  %77 = load ptr, ptr %3, align 8, !tbaa !4
  %78 = load i32, ptr %6, align 4, !tbaa !32
  %79 = load ptr, ptr %5, align 8, !tbaa !77
  %80 = load i8, ptr %79, align 1, !tbaa !38
  %81 = sext i8 %80 to i32
  %82 = icmp eq i32 %81, 10
  br i1 %82, label %83, label %84

83:                                               ; preds = %76
  br label %88

84:                                               ; preds = %76
  %85 = load ptr, ptr %5, align 8, !tbaa !77
  %86 = load i8, ptr %85, align 1, !tbaa !38
  %87 = sext i8 %86 to i32
  br label %88

88:                                               ; preds = %84, %83
  %89 = phi i32 [ 78, %83 ], [ %87, %84 ]
  call void (ptr, i32, ptr, ...) @av_log(ptr noundef %77, i32 noundef 48, ptr noundef @.str.38, i32 noundef %78, i32 noundef %89)
  %90 = load ptr, ptr %5, align 8, !tbaa !77
  %91 = load i8, ptr %90, align 1, !tbaa !38
  %92 = sext i8 %91 to i32
  %93 = icmp eq i32 %92, 10
  br i1 %93, label %98, label %94

94:                                               ; preds = %88
  %95 = load ptr, ptr %5, align 8, !tbaa !77
  %96 = load i8, ptr %95, align 1, !tbaa !38
  %97 = icmp ne i8 %96, 0
  br i1 %97, label %99, label %98

98:                                               ; preds = %94, %88
  br label %120

99:                                               ; preds = %94
  %100 = load ptr, ptr %5, align 8, !tbaa !77
  %101 = getelementptr inbounds nuw i8, ptr %100, i32 1
  store ptr %101, ptr %5, align 8, !tbaa !77
  %102 = load i8, ptr %100, align 1, !tbaa !38
  %103 = sext i8 %102 to i32
  %104 = call i32 @av_isgraph(i32 noundef %103) #11
  %105 = icmp ne i32 %104, 0
  %106 = xor i1 %105, true
  %107 = xor i1 %106, true
  %108 = zext i1 %107 to i32
  %109 = trunc i32 %108 to i8
  %110 = load ptr, ptr %4, align 8, !tbaa !22
  %111 = getelementptr inbounds nuw %struct.CellAutoContext, ptr %110, i32 0, i32 7
  %112 = load ptr, ptr %111, align 8, !tbaa !34
  %113 = load i32, ptr %6, align 4, !tbaa !32
  %114 = sext i32 %113 to i64
  %115 = getelementptr inbounds i8, ptr %112, i64 %114
  store i8 %109, ptr %115, align 1, !tbaa !38
  br label %116

116:                                              ; preds = %99
  br label %117

117:                                              ; preds = %116
  %118 = load i32, ptr %6, align 4, !tbaa !32
  %119 = add nsw i32 %118, 1
  store i32 %119, ptr %6, align 4, !tbaa !32
  br label %76

120:                                              ; preds = %98
  store i32 0, ptr %2, align 4
  store i32 1, ptr %8, align 4
  br label %121

121:                                              ; preds = %120, %65, %29
  call void @llvm.lifetime.end.p0(i64 4, ptr %7) #9
  call void @llvm.lifetime.end.p0(i64 4, ptr %6) #9
  call void @llvm.lifetime.end.p0(i64 8, ptr %5) #9
  call void @llvm.lifetime.end.p0(i64 8, ptr %4) #9
  %122 = load i32, ptr %2, align 4
  ret i32 %122
}