; Function Attrs: nounwind uwtable
define internal fastcc range(i32 -22, 1) i32 @init_pattern_from_string(ptr noundef %0) unnamed_addr #1 {
  %2 = getelementptr inbounds nuw i8, ptr %0, i64 72
  %3 = load ptr, ptr %2, align 8, !tbaa !4
  %4 = getelementptr inbounds nuw i8, ptr %3, i64 392
  %5 = load ptr, ptr %4, align 8, !tbaa !27
  %6 = tail call i64 @strlen(ptr noundef nonnull dereferenceable(1) %5) #8
  %7 = trunc i64 %6 to i32
  tail call void (ptr, i32, ptr, ...) @av_log(ptr noundef %0, i32 noundef 48, ptr noundef nonnull @.str.36, i32 noundef %7) #7
  %8 = getelementptr inbounds nuw i8, ptr %3, i64 8
  %9 = load i32, ptr %8, align 8, !tbaa !20
  %.not = icmp eq i32 %9, 0
  br i1 %.not, label %13, label %10

10:                                               ; preds = %1
  %11 = icmp slt i32 %9, %7
  br i1 %11, label %12, label %._crit_edge

._crit_edge:                                      ; preds = %10
  %.phi.trans.insert = getelementptr inbounds nuw i8, ptr %3, i64 12
  %.pre = load i32, ptr %.phi.trans.insert, align 4, !tbaa !31
  br label %18

12:                                               ; preds = %10
  tail call void (ptr, i32, ptr, ...) @av_log(ptr noundef nonnull %0, i32 noundef 16, ptr noundef nonnull @.str.37, i32 noundef %9, i32 noundef %7) #7
  br label %.loopexit

13:                                               ; preds = %1
  store i32 %7, ptr %8, align 8, !tbaa !20
  %14 = sitofp i32 %7 to double
  %15 = fmul nsz double %14, 0x3FF9E3779B97F4A8
  %16 = fptosi double %15 to i32
  %17 = getelementptr inbounds nuw i8, ptr %3, i64 12
  store i32 %16, ptr %17, align 4, !tbaa !31
  br label %18

18:                                               ; preds = %._crit_edge, %13
  %19 = phi i32 [ %.pre, %._crit_edge ], [ %16, %13 ]
  %20 = phi i32 [ %9, %._crit_edge ], [ %7, %13 ]
  %21 = sext i32 %20 to i64
  %22 = sext i32 %19 to i64
  %23 = tail call noalias ptr @av_calloc(i64 noundef %21, i64 noundef %22) #7
  %24 = getelementptr inbounds nuw i8, ptr %3, i64 48
  store ptr %23, ptr %24, align 8, !tbaa !32
  %.not37 = icmp eq ptr %23, null
  br i1 %.not37, label %.loopexit, label %25

25:                                               ; preds = %18
  %26 = load ptr, ptr %4, align 8, !tbaa !27
  %27 = load i32, ptr %8, align 8, !tbaa !20
  %28 = sub nsw i32 %27, %7
  %29 = sdiv i32 %28, 2
  %30 = sext i32 %29 to i64
  br label %31

31:                                               ; preds = %36, %25
  %indvars.iv = phi i64 [ %indvars.iv.next, %36 ], [ %30, %25 ]
  %.031 = phi ptr [ %38, %36 ], [ %26, %25 ]
  %32 = load i8, ptr %.031, align 1, !tbaa !30
  %33 = icmp eq i8 %32, 10
  %narrow = select i1 %33, i8 78, i8 %32
  %spec.select = sext i8 %narrow to i32
  %34 = trunc nsw i64 %indvars.iv to i32
  tail call void (ptr, i32, ptr, ...) @av_log(ptr noundef %0, i32 noundef 48, ptr noundef nonnull @.str.38, i32 noundef %34, i32 noundef %spec.select) #7
  %35 = load i8, ptr %.031, align 1, !tbaa !30
  switch i8 %35, label %36 [
    i8 10, label %.loopexit
    i8 0, label %.loopexit
  ]

36:                                               ; preds = %31
  %37 = sext i8 %35 to i32
  %38 = getelementptr inbounds nuw i8, ptr %.031, i64 1
  %39 = add nsw i32 %37, -33
  %40 = icmp ult i32 %39, 94
  %41 = zext i1 %40 to i8
  %42 = load ptr, ptr %24, align 8, !tbaa !32
  %43 = getelementptr inbounds i8, ptr %42, i64 %indvars.iv
  store i8 %41, ptr %43, align 1, !tbaa !30
  %indvars.iv.next = add nsw i64 %indvars.iv, 1
  br label %31

.loopexit:                                        ; preds = %31, %31, %18, %12
  %.032 = phi i32 [ -22, %12 ], [ -12, %18 ], [ 0, %31 ], [ 0, %31 ]
  ret i32 %.032
}